; Function Attrs: mustprogress nounwind uwtable
define hidden void @_ZN25InterpreterMacroAssembler12call_VM_baseE8RegisterS0_S0_Phib(ptr noundef nonnull align 8 dereferenceable(48) %0, i32 %1, i32 %2, i32 %3, ptr noundef %4, i32 noundef %5, i1 noundef zeroext %6) unnamed_addr #0 align 2 {
  %8 = alloca %class.Address, align 8
  %9 = alloca %class.Address, align 16
  %10 = alloca %class.Address, align 8
  %11 = alloca %class.Address, align 16
  %12 = alloca %class.Address, align 16
  call void @llvm.lifetime.start.p0(i64 64, ptr nonnull %12)
  store <4 x i32> <i32 5, i32 -1, i32 -1, i32 -1>, ptr %12, align 16
  %13 = getelementptr inbounds i8, ptr %12, i64 16
  store i32 -64, ptr %13, align 16
  %14 = getelementptr inbounds i8, ptr %12, i64 20
  store i8 0, ptr %14, align 4
  %15 = getelementptr inbounds i8, ptr %12, i64 24
  store ptr getelementptr inbounds inrange(-16, 72) (i8, ptr @_ZTV10Relocation, i64 16), ptr %15, align 8
  %16 = getelementptr inbounds i8, ptr %12, i64 32
  store ptr null, ptr %16, align 16
  %17 = getelementptr inbounds i8, ptr %12, i64 40
  store i32 0, ptr %17, align 8
  %18 = getelementptr inbounds i8, ptr %0, i64 44
  %.sroa.0.0.copyload.i = load i32, ptr %18, align 4
  call void @_ZN14MacroAssembler6movptrE7Address8Register(ptr noundef nonnull align 8 dereferenceable(40) %0, ptr noundef nonnull %12, i32 %.sroa.0.0.copyload.i) #8
  call void @llvm.lifetime.end.p0(i64 64, ptr nonnull %12)
  call void @_ZN14MacroAssembler12call_VM_baseE8RegisterS0_S0_Phib(ptr noundef nonnull align 8 dereferenceable(40) %0, i32 %1, i32 -1, i32 %3, ptr noundef %4, i32 noundef %5, i1 noundef zeroext %6) #8
  call void @llvm.lifetime.start.p0(i64 64, ptr nonnull %11)
  %.sroa.01.0.copyload.i = load i32, ptr %18, align 4
  store <4 x i32> <i32 5, i32 -1, i32 -1, i32 -1>, ptr %11, align 16
  %19 = getelementptr inbounds i8, ptr %11, i64 16
  store i32 -64, ptr %19, align 16
  %20 = getelementptr inbounds i8, ptr %11, i64 20
  store i8 0, ptr %20, align 4
  %21 = getelementptr inbounds i8, ptr %11, i64 24
  store ptr getelementptr inbounds inrange(-16, 72) (i8, ptr @_ZTV10Relocation, i64 16), ptr %21, align 8
  %22 = getelementptr inbounds i8, ptr %11, i64 32
  store ptr null, ptr %22, align 16
  %23 = getelementptr inbounds i8, ptr %11, i64 40
  store i32 0, ptr %23, align 8
  call void @_ZN14MacroAssembler6movptrE8Register7Address(ptr noundef nonnull align 8 dereferenceable(40) %0, i32 %.sroa.01.0.copyload.i, ptr noundef nonnull %11) #8
  call void @llvm.lifetime.end.p0(i64 64, ptr nonnull %11)
  call void @llvm.lifetime.start.p0(i64 64, ptr nonnull %9)
  call void @llvm.lifetime.start.p0(i64 64, ptr nonnull %10)
  %24 = getelementptr inbounds i8, ptr %0, i64 40
  %.sroa.04.0.copyload.i = load i32, ptr %24, align 8
  store <4 x i32> <i32 5, i32 -1, i32 -1, i32 -1>, ptr %9, align 16
  %25 = getelementptr inbounds i8, ptr %9, i64 16
  store i32 -56, ptr %25, align 16
  %26 = getelementptr inbounds i8, ptr %9, i64 20
  store i8 0, ptr %26, align 4
  %27 = getelementptr inbounds i8, ptr %9, i64 24
  store ptr getelementptr inbounds inrange(-16, 72) (i8, ptr @_ZTV10Relocation, i64 16), ptr %27, align 8
  %28 = getelementptr inbounds i8, ptr %9, i64 32
  store ptr null, ptr %28, align 16
  %29 = getelementptr inbounds i8, ptr %9, i64 40
  store i32 0, ptr %29, align 8
  call void @_ZN14MacroAssembler6movptrE8Register7Address(ptr noundef nonnull align 8 dereferenceable(40) %0, i32 %.sroa.04.0.copyload.i, ptr noundef nonnull %9) #8
  %.sroa.02.0.copyload.i = load i32, ptr %24, align 8
  store i32 5, ptr %10, align 8
  %30 = getelementptr inbounds i8, ptr %10, i64 4
  store i32 %.sroa.02.0.copyload.i, ptr %30, align 4
  %31 = getelementptr inbounds i8, ptr %10, i64 8
  store i32 -1, ptr %31, align 8
  %32 = getelementptr inbounds i8, ptr %10, i64 12
  store i32 3, ptr %32, align 4
  %33 = getelementptr inbounds i8, ptr %10, i64 16
  store i32 0, ptr %33, align 8
  %34 = getelementptr inbounds i8, ptr %10, i64 20
  store i8 0, ptr %34, align 4
  %35 = getelementptr inbounds i8, ptr %10, i64 24
  store ptr getelementptr inbounds inrange(-16, 72) (i8, ptr @_ZTV10Relocation, i64 16), ptr %35, align 8
  %36 = getelementptr inbounds i8, ptr %10, i64 32
  store ptr null, ptr %36, align 8
  %37 = getelementptr inbounds i8, ptr %10, i64 40
  store i32 0, ptr %37, align 8
  call void @llvm.lifetime.start.p0(i64 64, ptr nonnull %8)
  call void @llvm.memcpy.p0.p0.i64(ptr noundef nonnull align 8 dereferenceable(21) %8, ptr noundef nonnull align 8 dereferenceable(21) %10, i64 21, i1 false)
  %38 = getelementptr inbounds i8, ptr %8, i64 24
  %39 = load ptr, ptr getelementptr inbounds inrange(-32, 56) (i8, ptr @_ZTV10Relocation, i64 32), align 8
  call void %39(ptr noundef nonnull align 8 dereferenceable(20) %35, ptr noundef nonnull align 8 dereferenceable(40) %38) #8
  call void @_ZN9Assembler3leaE8Register7Address(ptr noundef nonnull align 8 dereferenceable(40) %0, i32 %.sroa.02.0.copyload.i, ptr noundef nonnull %8) #8
  call void @llvm.lifetime.end.p0(i64 64, ptr nonnull %8)
  call void @llvm.lifetime.end.p0(i64 64, ptr nonnull %9)
  call void @llvm.lifetime.end.p0(i64 64, ptr nonnull %10)
  ret void
}